target datalayout = "e-m:e-p270:32:32-p271:32:32-p272:64:64-i64:64-i128:128-f80:128-n8:16:32:64-S128"
target triple = "x86_64-unknown-linux-gnu"

%class.symbol = type { ptr }
%"class.smt2::parser" = type { ptr, %class.params_ref, %"class.smt2::scanner", i32, ptr, %class.stack, %class.symbol_table, i32, [4 x i8], %class.map, %class.map, %class.map.5, %class.svector.9, %class.scoped_ptr, %class.scoped_ptr.11, %class.scoped_ptr.12, i32, %class.scoped_ptr.12, %class.scoped_ptr.12, %class.svector.9, %class.vector.13, %class.scoped_ptr.14, %class.scoped_ptr.15, %class.scoped_ptr.16, %class.scoped_ptr.17, %class.scoped_ptr.18, %class.scoped_ptr.19, %class.scoped_ptr.20, %class.symbol, %class.symbol, %class.symbol, %class.symbol, %class.symbol, %class.symbol, %class.symbol, %class.symbol, %class.symbol, %class.symbol, %class.symbol, %class.symbol, %class.symbol, %class.symbol, %class.symbol, %class.symbol, %class.symbol, %class.symbol, %class.symbol, %class.symbol, %class.symbol, %class.symbol, %class.symbol, %class.symbol, %class.symbol, %class.symbol, %class.symbol, %class.symbol, %class.symbol, %class.symbol, %class.symbol, %class.symbol, %class.symbol, %class.symbol, %class.symbol, %class.symbol, %class.symbol, %class.symbol, %class.symbol, %class.symbol, %"struct.std::pair", i8, i8, i8, i32, %"class.std::vector", i32, ptr, %class.rational, %"class.std::__cxx11::basic_string" }
%class.params_ref = type { ptr }
%"class.smt2::scanner" = type { ptr, i8, i32, i8, i8, i32, i32, %class.symbol, %class.rational, i32, [256 x i8], [1024 x i8], i32, i32, %class.svector, ptr, i8, %class.svector, %class.svector }
%class.svector = type { %class.vector }
%class.vector = type { ptr }
%class.stack = type { ptr, ptr, ptr, ptr }
%class.symbol_table = type { %class.core_hashtable, %class.vector.0, %class.svector.1 }
%class.core_hashtable = type <{ ptr, i32, i32, i32, [4 x i8] }>
%class.vector.0 = type { ptr }
%class.svector.1 = type { %class.vector.2 }
%class.vector.2 = type { ptr }
%class.map = type { %class.table2map }
%class.table2map = type { %class.core_hashtable.3 }
%class.core_hashtable.3 = type <{ ptr, i32, i32, i32, [4 x i8] }>
%class.map.5 = type { %class.table2map.6 }
%class.table2map.6 = type { %class.core_hashtable.7 }
%class.core_hashtable.7 = type <{ ptr, i32, i32, i32, [4 x i8] }>
%class.scoped_ptr = type { ptr }
%class.scoped_ptr.11 = type { ptr }
%class.scoped_ptr.12 = type { ptr }
%class.svector.9 = type { %class.vector.10 }
%class.vector.10 = type { ptr }
%class.vector.13 = type { ptr }
%class.scoped_ptr.14 = type { ptr }
%class.scoped_ptr.15 = type { ptr }
%class.scoped_ptr.16 = type { ptr }
%class.scoped_ptr.17 = type { ptr }
%class.scoped_ptr.18 = type { ptr }
%class.scoped_ptr.19 = type { ptr }
%class.scoped_ptr.20 = type { ptr }
%"struct.std::pair" = type { %class.symbol, ptr }
%"class.std::vector" = type { %"struct.std::_Vector_base" }
%"struct.std::_Vector_base" = type { %"struct.std::_Vector_base<std::__cxx11::basic_string<char>, std::allocator<std::__cxx11::basic_string<char>>>::_Vector_impl" }
%"struct.std::_Vector_base<std::__cxx11::basic_string<char>, std::allocator<std::__cxx11::basic_string<char>>>::_Vector_impl" = type { %"struct.std::_Vector_base<std::__cxx11::basic_string<char>, std::allocator<std::__cxx11::basic_string<char>>>::_Vector_impl_data" }
%"struct.std::_Vector_base<std::__cxx11::basic_string<char>, std::allocator<std::__cxx11::basic_string<char>>>::_Vector_impl_data" = type { ptr, ptr, ptr }
%class.rational = type { %class.mpq }
%class.mpq = type { %class.mpz, %class.mpz }
%class.mpz = type { i32, i8, ptr }
%"class.std::__cxx11::basic_string" = type { %"struct.std::__cxx11::basic_string<char>::_Alloc_hider", i64, %union.anon }
%"struct.std::__cxx11::basic_string<char>::_Alloc_hider" = type { ptr }
%union.anon = type { i64, [8 x i8] }

; Function Attrs: mustprogress uwtable
define hidden noundef zeroext i1 @_Z19parse_smt2_commandsR11cmd_contextRSibRK10params_refPKc(ptr noundef nonnull align 8 dereferenceable(872) %ctx, ptr noundef nonnull align 8 dereferenceable(16) %is, i1 noundef zeroext %interactive, ptr noundef nonnull align 8 dereferenceable(8) %ps, ptr noundef %filename) #4 personality ptr @__gxx_personality_v0 {
entry:
  %ctx.addr = alloca ptr, align 8
  %is.addr = alloca ptr, align 8
  %interactive.addr = alloca i8, align 1
  %ps.addr = alloca ptr, align 8
  %filename.addr = alloca ptr, align 8
  %p = alloca %"class.smt2::parser", align 8
  %exn.slot = alloca ptr, align 8
  %ehselector.slot = alloca i32, align 4
  store ptr %ctx, ptr %ctx.addr, align 8
  store ptr %is, ptr %is.addr, align 8
  %frombool = zext i1 %interactive to i8
  store i8 %frombool, ptr %interactive.addr, align 1
  store ptr %ps, ptr %ps.addr, align 8
  store ptr %filename, ptr %filename.addr, align 8
  %0 = load ptr, ptr %ctx.addr, align 8
  %1 = load ptr, ptr %is.addr, align 8
  %2 = load i8, ptr %interactive.addr, align 1
  %tobool = trunc i8 %2 to i1
  %3 = load ptr, ptr %ps.addr, align 8
  %4 = load ptr, ptr %filename.addr, align 8
  call void @_ZN4smt26parserC2ER11cmd_contextRSibRK10params_refPKc(ptr noundef nonnull align 8 dereferenceable(2168) %p, ptr noundef nonnull align 8 dereferenceable(872) %0, ptr noundef nonnull align 8 dereferenceable(16) %1, i1 noundef zeroext %tobool, ptr noundef nonnull align 8 dereferenceable(8) %3, ptr noundef %4)
  %call = invoke noundef zeroext i1 @_ZN4smt26parserclEv(ptr noundef nonnull align 8 dereferenceable(2168) %p)
          to label %invoke.cont unwind label %lpad

invoke.cont:                                      ; preds = %entry
  call void @_ZN4smt26parserD2Ev(ptr noundef nonnull align 8 dereferenceable(2168) %p) #3
  ret i1 %call

lpad:                                             ; preds = %entry
  %5 = landingpad { ptr, i32 }
          cleanup
  %6 = extractvalue { ptr, i32 } %5, 0
  store ptr %6, ptr %exn.slot, align 8
  %7 = extractvalue { ptr, i32 } %5, 1
  store i32 %7, ptr %ehselector.slot, align 4
  call void @_ZN4smt26parserD2Ev(ptr noundef nonnull align 8 dereferenceable(2168) %p) #3
  br label %eh.resume

eh.resume:                                        ; preds = %lpad
  %exn = load ptr, ptr %exn.slot, align 8
  %sel = load i32, ptr %ehselector.slot, align 4
  %lpad.val = insertvalue { ptr, i32 } poison, ptr %exn, 0
  %lpad.val1 = insertvalue { ptr, i32 } %lpad.val, i32 %sel, 1
  resume { ptr, i32 } %lpad.val1
}