; Function Attrs: mustprogress uwtable
define hidden noundef zeroext i1 @_Z19parse_smt2_commandsR11cmd_contextRSibRK10params_refPKc(ptr noundef nonnull align 8 dereferenceable(872) %ctx, ptr noundef nonnull align 8 dereferenceable(16) %is, i1 noundef zeroext %interactive, ptr noundef nonnull align 8 dereferenceable(8) %ps, ptr noundef %filename) local_unnamed_addr #3 personality ptr @__gxx_personality_v0 {
entry:
  %p = alloca %"class.smt2::parser", align 8
  call void @_ZN4smt26parserC2ER11cmd_contextRSibRK10params_refPKc(ptr noundef nonnull align 8 dereferenceable(2168) %p, ptr noundef nonnull align 8 dereferenceable(872) %ctx, ptr noundef nonnull align 8 dereferenceable(16) %is, i1 noundef zeroext %interactive, ptr noundef nonnull align 8 dereferenceable(8) %ps, ptr noundef %filename)
  %call = invoke noundef zeroext i1 @_ZN4smt26parserclEv(ptr noundef nonnull align 8 dereferenceable(2168) %p)
          to label %invoke.cont unwind label %lpad

invoke.cont:                                      ; preds = %entry
  call void @_ZN4smt26parserD2Ev(ptr noundef nonnull align 8 dereferenceable(2168) %p) #19
  ret i1 %call

lpad:                                             ; preds = %entry
  %0 = landingpad { ptr, i32 }
          cleanup
  call void @_ZN4smt26parserD2Ev(ptr noundef nonnull align 8 dereferenceable(2168) %p) #19
  resume { ptr, i32 } %0
}